target datalayout = "e-m:e-p270:32:32-p271:32:32-p272:64:64-i64:64-i128:128-f80:128-n8:16:32:64-S128"
target triple = "x86_64-pc-linux-gnu"

%"class.ncnn::Mat" = type { ptr, ptr, i64, i32, ptr, i32, i32, i32, i32, i32, i64 }
%struct.__loadu_ps.8 = type { <4 x float> }
%struct.__storeu_ps.9 = type { <4 x float> }

; Function Attrs: alwaysinline mustprogress nounwind uwtable
define internal void @_ZL13_mm_storeu_psPfDv4_f(ptr noundef %0, <4 x float> noundef nofpclass(nan inf) %1) #14 {
  %3 = alloca ptr, align 8
  %4 = alloca <4 x float>, align 16
  store ptr %0, ptr %3, align 8, !tbaa !60
  store <4 x float> %1, ptr %4, align 16, !tbaa !62
  %5 = load <4 x float>, ptr %4, align 16, !tbaa !62
  %6 = load ptr, ptr %3, align 8, !tbaa !60
  %7 = getelementptr inbounds nuw %struct.__storeu_ps.9, ptr %6, i32 0, i32 0
  store <4 x float> %5, ptr %7, align 1, !tbaa !62
  ret void
}

; Function Attrs: alwaysinline mustprogress nounwind uwtable
define internal noundef nofpclass(nan inf) <4 x float> @_ZL12_mm_loadu_psPKf(ptr noundef %0) #14 {
  %2 = alloca ptr, align 8
  store ptr %0, ptr %2, align 8, !tbaa !60
  %3 = load ptr, ptr %2, align 8, !tbaa !60
  %4 = getelementptr inbounds nuw %struct.__loadu_ps.8, ptr %3, i32 0, i32 0
  %5 = load <4 x float>, ptr %4, align 1, !tbaa !62
  ret <4 x float> %5
}

; Function Attrs: alwaysinline mustprogress nounwind uwtable
define linkonce_odr hidden noundef ptr @_ZN4ncnn3MatcvPT_IfEEv(ptr noundef nonnull align 8 dereferenceable(72) %0) #5 comdat align 2 {
  %2 = alloca ptr, align 8
  store ptr %0, ptr %2, align 8, !tbaa !17
  %3 = load ptr, ptr %2, align 8
  %4 = getelementptr inbounds nuw %"class.ncnn::Mat", ptr %3, i32 0, i32 0
  %5 = load ptr, ptr %4, align 8, !tbaa !57
  ret ptr %5
}

; Function Attrs: alwaysinline mustprogress nounwind uwtable
define linkonce_odr hidden noundef ptr @_ZNK4ncnn3Mat3rowEi(ptr noundef nonnull align 8 dereferenceable(72) %0, i32 noundef %1) #5 comdat align 2 {
  %3 = alloca ptr, align 8
  %4 = alloca i32, align 4
  store ptr %0, ptr %3, align 8, !tbaa !17
  store i32 %1, ptr %4, align 4, !tbaa !25
  %5 = load ptr, ptr %3, align 8
  %6 = getelementptr inbounds nuw %"class.ncnn::Mat", ptr %5, i32 0, i32 0
  %7 = load ptr, ptr %6, align 8, !tbaa !57
  %8 = getelementptr inbounds nuw %"class.ncnn::Mat", ptr %5, i32 0, i32 6
  %9 = load i32, ptr %8, align 4, !tbaa !19
  %10 = sext i32 %9 to i64
  %11 = load i32, ptr %4, align 4, !tbaa !25
  %12 = sext i32 %11 to i64
  %13 = mul i64 %10, %12
  %14 = getelementptr inbounds nuw %"class.ncnn::Mat", ptr %5, i32 0, i32 2
  %15 = load i64, ptr %14, align 8, !tbaa !30
  %16 = mul i64 %13, %15
  %17 = getelementptr inbounds nuw i8, ptr %7, i64 %16
  ret ptr %17
}

; Function Attrs: mustprogress uwtable
define internal void @_ZN4ncnnL14crop_pack4_sseERKNS_3MatERS0_ii(ptr noundef nonnull align 8 dereferenceable(72) %0, ptr noundef nonnull align 8 dereferenceable(72) %1, i32 noundef %2, i32 noundef %3) #10 {
  %5 = alloca ptr, align 8
  %6 = alloca ptr, align 8
  %7 = alloca i32, align 4
  %8 = alloca i32, align 4
  %9 = alloca i32, align 4
  %10 = alloca i32, align 4
  %11 = alloca i32, align 4
  %12 = alloca ptr, align 8
  %13 = alloca ptr, align 8
  %14 = alloca i32, align 4
  %15 = alloca i32, align 4
  %16 = alloca i32, align 4
  %17 = alloca <4 x float>, align 16
  store ptr %0, ptr %5, align 8, !tbaa !17
  store ptr %1, ptr %6, align 8, !tbaa !17
  store i32 %2, ptr %7, align 4, !tbaa !25
  store i32 %3, ptr %8, align 4, !tbaa !25
  call void @llvm.lifetime.start.p0(i64 4, ptr %9) #8
  %18 = load ptr, ptr %6, align 8, !tbaa !17
  %19 = getelementptr inbounds nuw %"class.ncnn::Mat", ptr %18, i32 0, i32 6
  %20 = load i32, ptr %19, align 4, !tbaa !19
  store i32 %20, ptr %9, align 4, !tbaa !25
  call void @llvm.lifetime.start.p0(i64 4, ptr %10) #8
  %21 = load ptr, ptr %6, align 8, !tbaa !17
  %22 = getelementptr inbounds nuw %"class.ncnn::Mat", ptr %21, i32 0, i32 7
  %23 = load i32, ptr %22, align 8, !tbaa !26
  store i32 %23, ptr %10, align 4, !tbaa !25
  call void @llvm.lifetime.start.p0(i64 4, ptr %11) #8
  %24 = load ptr, ptr %5, align 8, !tbaa !17
  %25 = getelementptr inbounds nuw %"class.ncnn::Mat", ptr %24, i32 0, i32 6
  %26 = load i32, ptr %25, align 4, !tbaa !19
  %27 = load ptr, ptr %6, align 8, !tbaa !17
  %28 = getelementptr inbounds nuw %"class.ncnn::Mat", ptr %27, i32 0, i32 6
  %29 = load i32, ptr %28, align 4, !tbaa !19
  %30 = sub nsw i32 %26, %29
  %31 = load i32, ptr %8, align 4, !tbaa !25
  %32 = sub nsw i32 %30, %31
  store i32 %32, ptr %11, align 4, !tbaa !25
  call void @llvm.lifetime.start.p0(i64 8, ptr %12) #8
  %33 = load ptr, ptr %5, align 8, !tbaa !17
  %34 = load i32, ptr %7, align 4, !tbaa !25
  %35 = call noundef ptr @_ZNK4ncnn3Mat3rowEi(ptr noundef nonnull align 8 dereferenceable(72) %33, i32 noundef %34)
  %36 = load i32, ptr %8, align 4, !tbaa !25
  %37 = mul nsw i32 %36, 4
  %38 = sext i32 %37 to i64
  %39 = getelementptr inbounds float, ptr %35, i64 %38
  store ptr %39, ptr %12, align 8, !tbaa !60
  call void @llvm.lifetime.start.p0(i64 8, ptr %13) #8
  %40 = load ptr, ptr %6, align 8, !tbaa !17
  %41 = call noundef ptr @_ZN4ncnn3MatcvPT_IfEEv(ptr noundef nonnull align 8 dereferenceable(72) %40)
  store ptr %41, ptr %13, align 8, !tbaa !60
  call void @llvm.lifetime.start.p0(i64 4, ptr %14) #8
  store i32 0, ptr %14, align 4, !tbaa !25
  br label %42

42:                                               ; preds = %73, %4
  %43 = load i32, ptr %14, align 4, !tbaa !25
  %44 = load i32, ptr %10, align 4, !tbaa !25
  %45 = icmp slt i32 %43, %44
  br i1 %45, label %47, label %46

46:                                               ; preds = %42
  store i32 2, ptr %15, align 4
  call void @llvm.lifetime.end.p0(i64 4, ptr %14) #8
  br label %76

47:                                               ; preds = %42
  call void @llvm.lifetime.start.p0(i64 4, ptr %16) #8
  store i32 0, ptr %16, align 4, !tbaa !25
  br label %48

48:                                               ; preds = %62, %47
  %49 = load i32, ptr %16, align 4, !tbaa !25
  %50 = load i32, ptr %9, align 4, !tbaa !25
  %51 = icmp slt i32 %49, %50
  br i1 %51, label %53, label %52

52:                                               ; preds = %48
  store i32 5, ptr %15, align 4
  call void @llvm.lifetime.end.p0(i64 4, ptr %16) #8
  br label %65

53:                                               ; preds = %48
  call void @llvm.lifetime.start.p0(i64 16, ptr %17) #8
  %54 = load ptr, ptr %12, align 8, !tbaa !60
  %55 = call fast noundef nofpclass(nan inf) <4 x float> @_ZL12_mm_loadu_psPKf(ptr noundef %54)
  store <4 x float> %55, ptr %17, align 16, !tbaa !62
  %56 = load ptr, ptr %13, align 8, !tbaa !60
  %57 = load <4 x float>, ptr %17, align 16, !tbaa !62
  call void @_ZL13_mm_storeu_psPfDv4_f(ptr noundef %56, <4 x float> noundef nofpclass(nan inf) %57)
  %58 = load ptr, ptr %12, align 8, !tbaa !60
  %59 = getelementptr inbounds float, ptr %58, i64 4
  store ptr %59, ptr %12, align 8, !tbaa !60
  %60 = load ptr, ptr %13, align 8, !tbaa !60
  %61 = getelementptr inbounds float, ptr %60, i64 4
  store ptr %61, ptr %13, align 8, !tbaa !60
  call void @llvm.lifetime.end.p0(i64 16, ptr %17) #8
  br label %62

62:                                               ; preds = %53
  %63 = load i32, ptr %16, align 4, !tbaa !25
  %64 = add nsw i32 %63, 1
  store i32 %64, ptr %16, align 4, !tbaa !25
  br label %48, !llvm.loop !70

65:                                               ; preds = %52
  %66 = load i32, ptr %8, align 4, !tbaa !25
  %67 = load i32, ptr %11, align 4, !tbaa !25
  %68 = add nsw i32 %66, %67
  %69 = mul nsw i32 %68, 4
  %70 = load ptr, ptr %12, align 8, !tbaa !60
  %71 = sext i32 %69 to i64
  %72 = getelementptr inbounds float, ptr %70, i64 %71
  store ptr %72, ptr %12, align 8, !tbaa !60
  br label %73

73:                                               ; preds = %65
  %74 = load i32, ptr %14, align 4, !tbaa !25
  %75 = add nsw i32 %74, 1
  store i32 %75, ptr %14, align 4, !tbaa !25
  br label %42, !llvm.loop !71

76:                                               ; preds = %46
  call void @llvm.lifetime.end.p0(i64 8, ptr %13) #8
  call void @llvm.lifetime.end.p0(i64 8, ptr %12) #8
  call void @llvm.lifetime.end.p0(i64 4, ptr %11) #8
  call void @llvm.lifetime.end.p0(i64 4, ptr %10) #8
  call void @llvm.lifetime.end.p0(i64 4, ptr %9) #8
  ret void
}