; Function Attrs: mustprogress nofree norecurse nosync nounwind memory(readwrite, inaccessiblemem: none) uwtable
define internal fastcc void @_ZN4ncnnL14crop_pack4_sseERKNS_3MatERS0_ii(ptr noundef nonnull readonly align 8 captures(none) dereferenceable(72) %0, ptr noundef nonnull readonly align 8 captures(none) dereferenceable(72) %1, i32 noundef %2, i32 noundef %3) unnamed_addr #9 {
  %5 = getelementptr inbounds nuw i8, ptr %1, i64 44
  %6 = load i32, ptr %5, align 4, !tbaa !21
  %7 = getelementptr inbounds nuw i8, ptr %1, i64 48
  %8 = load i32, ptr %7, align 8, !tbaa !22
  %9 = icmp sgt i32 %8, 0
  br i1 %9, label %.preheader.lr.ph, label %._crit_edge33

.preheader.lr.ph:                                 ; preds = %4
  %10 = getelementptr inbounds nuw i8, ptr %0, i64 44
  %11 = load i32, ptr %10, align 4, !tbaa !21
  %12 = sub nsw i32 %11, %6
  %13 = icmp sgt i32 %6, 0
  %14 = shl nsw i32 %12, 2
  %15 = sext i32 %14 to i64
  br i1 %13, label %.preheader.us.preheader, label %._crit_edge33

.preheader.us.preheader:                          ; preds = %.preheader.lr.ph
  %16 = load ptr, ptr %0, align 8, !tbaa !16
  %17 = sext i32 %11 to i64
  %18 = sext i32 %2 to i64
  %19 = mul nsw i64 %17, %18
  %20 = getelementptr inbounds nuw i8, ptr %0, i64 16
  %21 = load i64, ptr %20, align 8, !tbaa !26
  %22 = mul i64 %19, %21
  %23 = getelementptr inbounds nuw i8, ptr %16, i64 %22
  %24 = shl nsw i32 %3, 2
  %25 = sext i32 %24 to i64
  %26 = getelementptr inbounds float, ptr %23, i64 %25
  %27 = load ptr, ptr %1, align 8, !tbaa !16
  br label %.preheader.us

.preheader.us:                                    ; preds = %.preheader.us.preheader, %._crit_edge.us
  %.032.us = phi ptr [ %33, %._crit_edge.us ], [ %26, %.preheader.us.preheader ]
  %.02331.us = phi i32 [ %34, %._crit_edge.us ], [ 0, %.preheader.us.preheader ]
  %.02430.us = phi ptr [ %31, %._crit_edge.us ], [ %27, %.preheader.us.preheader ]
  br label %28

28:                                               ; preds = %.preheader.us, %28
  %.128.us = phi ptr [ %.032.us, %.preheader.us ], [ %30, %28 ]
  %.02227.us = phi i32 [ 0, %.preheader.us ], [ %32, %28 ]
  %.12526.us = phi ptr [ %.02430.us, %.preheader.us ], [ %31, %28 ]
  %29 = load <4 x float>, ptr %.128.us, align 1, !tbaa !48
  store <4 x float> %29, ptr %.12526.us, align 1, !tbaa !48
  %30 = getelementptr inbounds nuw i8, ptr %.128.us, i64 16
  %31 = getelementptr inbounds nuw i8, ptr %.12526.us, i64 16
  %32 = add nuw nsw i32 %.02227.us, 1
  %exitcond.not = icmp eq i32 %32, %6
  br i1 %exitcond.not, label %._crit_edge.us, label %28, !llvm.loop !62

._crit_edge.us:                                   ; preds = %28
  %33 = getelementptr inbounds float, ptr %30, i64 %15
  %34 = add nuw nsw i32 %.02331.us, 1
  %exitcond36.not = icmp eq i32 %34, %8
  br i1 %exitcond36.not, label %._crit_edge33, label %.preheader.us, !llvm.loop !63

._crit_edge33:                                    ; preds = %._crit_edge.us, %.preheader.lr.ph, %4
  ret void
}